target datalayout = "e-m:e-p270:32:32-p271:32:32-p272:64:64-i64:64-i128:128-f80:128-n8:16:32:64-S128"
target triple = "x86_64-pc-linux-gnu"

%union.pthread_mutex_t = type { %struct.__pthread_mutex_s }
%struct.__pthread_mutex_s = type { i32, i32, i32, i32, i32, i16, i16, %struct.__pthread_internal_list }
%struct.__pthread_internal_list = type { ptr, ptr }
%struct.slurm_gres_context = type { ptr, i32, ptr, ptr, i32, ptr, ptr, %struct.slurm_gres_ops, i32, ptr, i64 }
%struct.slurm_gres_ops = type { ptr, ptr, ptr, ptr, ptr, ptr, ptr, ptr, ptr, ptr, ptr }
%struct.foreach_gres_accumulate_device_t = type { ptr, i64, ptr, i8, i32, i32, i8 }
%struct.stepd_step_rec_t = type { ptr, ptr, i32, %union.pthread_cond_t, %union.pthread_mutex_t, %struct.slurm_step_id_msg, i32, i32, i32, i32, i32, i32, ptr, ptr, i32, i32, ptr, i32, i32, i32, i32, i32, ptr, ptr, ptr, ptr, i32, i32, i64, i64, i16, i32, ptr, ptr, ptr, i32, ptr, i32, ptr, i32, ptr, i16, i32, i32, i32, ptr, i32, ptr, ptr, ptr, ptr, i32, i32, ptr, ptr, i8, i8, i8, i64, i32, ptr, ptr, ptr, ptr, ptr, ptr, ptr, ptr, ptr, ptr, i32, i32, ptr, i8, %union.pthread_cond_t, %union.pthread_mutex_t, i64, ptr, i32, i32, i32, ptr, i64, ptr, ptr, i8, ptr, i16, ptr, ptr, ptr, ptr, ptr, ptr, i64, ptr, i64, ptr, i16, i8, i16, i32, ptr, i16, ptr, ptr, i16, ptr, ptr, ptr, i8 }
%struct.slurm_step_id_msg = type { i64, i32, i32, i32 }
%union.pthread_cond_t = type { %struct.__pthread_cond_s }
%struct.__pthread_cond_s = type { %union.__atomic_wide_counter, %union.__atomic_wide_counter, [2 x i32], [2 x i32], i32, i32, [2 x i32] }
%union.__atomic_wide_counter = type { i64 }

@gres_context_lock = internal global %union.pthread_mutex_t zeroinitializer, align 8
@.str.6 = private unnamed_addr constant [29 x i8] c"%s: pthread_mutex_lock(): %m\00", align 1
@gres_context_cnt = internal global i32 -1, align 4
@gres_context = internal global ptr null, align 8
@.str.16 = private unnamed_addr constant [31 x i8] c"%s: pthread_mutex_unlock(): %m\00", align 1
@__func__.gres_g_step_set_env = private unnamed_addr constant [20 x i8] c"gres_g_step_set_env\00", align 1

; Function Attrs: nounwind uwtable
define dso_local zeroext i1 @gres_id_shared(i32 noundef %0) #0 {
  %2 = alloca i1, align 1
  %3 = alloca i32, align 4
  store i32 %0, ptr %3, align 4
  %4 = load i32, ptr %3, align 4
  %5 = zext i32 %4 to i64
  %6 = and i64 %5, 512
  %7 = icmp ne i64 %6, 0
  br i1 %7, label %8, label %9

8:                                                ; preds = %1
  store i1 true, ptr %2, align 1
  br label %10

9:                                                ; preds = %1
  store i1 false, ptr %2, align 1
  br label %10

10:                                               ; preds = %9, %8
  %11 = load i1, ptr %2, align 1
  ret i1 %11
}

; Function Attrs: nounwind uwtable
define dso_local void @gres_g_step_set_env(ptr noundef %0) #0 {
  %2 = alloca ptr, align 8
  %3 = alloca i32, align 4
  %4 = alloca ptr, align 8
  %5 = alloca i32, align 4
  %6 = alloca %struct.foreach_gres_accumulate_device_t, align 8
  %7 = alloca i32, align 4
  %8 = alloca ptr, align 8
  %9 = alloca i32, align 4
  %10 = alloca i32, align 4
  store ptr %0, ptr %2, align 8
  call void @llvm.lifetime.start.p0(i64 4, ptr %3) #11
  call void @llvm.lifetime.start.p0(i64 8, ptr %4) #11
  store ptr null, ptr %4, align 8
  call void @llvm.lifetime.start.p0(i64 4, ptr %5) #11
  store i32 0, ptr %5, align 4
  call void @llvm.lifetime.start.p0(i64 40, ptr %6) #11
  call void @llvm.memset.p0.i64(ptr align 8 %6, i8 0, i64 40, i1 false)
  %11 = getelementptr inbounds nuw %struct.foreach_gres_accumulate_device_t, ptr %6, i32 0, i32 0
  store ptr %4, ptr %11, align 8
  br label %12

12:                                               ; preds = %1
  call void @llvm.lifetime.start.p0(i64 4, ptr %7) #11
  %13 = call i32 @pthread_mutex_lock(ptr noundef @gres_context_lock) #11
  store i32 %13, ptr %7, align 4
  %14 = load i32, ptr %7, align 4
  %15 = icmp ne i32 %14, 0
  br i1 %15, label %16, label %19

16:                                               ; preds = %12
  %17 = load i32, ptr %7, align 4
  %18 = call ptr @__errno_location() #12
  store i32 %17, ptr %18, align 4
  call void (ptr, ...) @fatal_abort(ptr noundef @.str.6, ptr noundef @__func__.gres_g_step_set_env) #13
  unreachable

19:                                               ; preds = %12
  call void @llvm.lifetime.end.p0(i64 4, ptr %7) #11
  br label %20

20:                                               ; preds = %19
  br label %21

21:                                               ; preds = %20
  store i32 0, ptr %3, align 4
  br label %22

22:                                               ; preds = %91, %21
  %23 = load i32, ptr %3, align 4
  %24 = load i32, ptr @gres_context_cnt, align 4
  %25 = icmp slt i32 %23, %24
  br i1 %25, label %26, label %94

26:                                               ; preds = %22
  call void @llvm.lifetime.start.p0(i64 8, ptr %8) #11
  %27 = load ptr, ptr @gres_context, align 8
  %28 = load i32, ptr %3, align 4
  %29 = sext i32 %28 to i64
  %30 = getelementptr inbounds %struct.slurm_gres_context, ptr %27, i64 %29
  store ptr %30, ptr %8, align 8
  %31 = load ptr, ptr %8, align 8
  %32 = getelementptr inbounds nuw %struct.slurm_gres_context, ptr %31, i32 0, i32 7
  %33 = getelementptr inbounds nuw %struct.slurm_gres_ops, ptr %32, i32 0, i32 2
  %34 = load ptr, ptr %33, align 8
  %35 = icmp ne ptr %34, null
  br i1 %35, label %37, label %36

36:                                               ; preds = %26
  store i32 6, ptr %9, align 4
  br label %88

37:                                               ; preds = %26
  %38 = load ptr, ptr %2, align 8
  %39 = getelementptr inbounds nuw %struct.stepd_step_rec_t, ptr %38, i32 0, i32 91
  %40 = load ptr, ptr %39, align 8
  %41 = icmp ne ptr %40, null
  br i1 %41, label %49, label %42

42:                                               ; preds = %37
  %43 = load ptr, ptr %8, align 8
  %44 = getelementptr inbounds nuw %struct.slurm_gres_context, ptr %43, i32 0, i32 7
  %45 = getelementptr inbounds nuw %struct.slurm_gres_ops, ptr %44, i32 0, i32 2
  %46 = load ptr, ptr %45, align 8
  %47 = load ptr, ptr %2, align 8
  %48 = getelementptr inbounds nuw %struct.stepd_step_rec_t, ptr %47, i32 0, i32 32
  call void %46(ptr noundef %48, ptr noundef null, i64 noundef 0, i32 noundef 0)
  store i32 6, ptr %9, align 4
  br label %88

49:                                               ; preds = %37
  %50 = load ptr, ptr %8, align 8
  %51 = getelementptr inbounds nuw %struct.slurm_gres_context, ptr %50, i32 0, i32 8
  %52 = load i32, ptr %51, align 8
  %53 = getelementptr inbounds nuw %struct.foreach_gres_accumulate_device_t, ptr %6, i32 0, i32 5
  store i32 %52, ptr %53, align 8
  %54 = load ptr, ptr %2, align 8
  %55 = getelementptr inbounds nuw %struct.stepd_step_rec_t, ptr %54, i32 0, i32 91
  %56 = load ptr, ptr %55, align 8
  %57 = call i32 @list_for_each(ptr noundef %56, ptr noundef @_accumulate_gres_device, ptr noundef %6)
  %58 = load ptr, ptr %8, align 8
  %59 = getelementptr inbounds nuw %struct.slurm_gres_context, ptr %58, i32 0, i32 1
  %60 = load i32, ptr %59, align 8
  %61 = call zeroext i1 @gres_id_shared(i32 noundef %60)
  br i1 %61, label %62, label %69

62:                                               ; preds = %49
  %63 = getelementptr inbounds nuw %struct.foreach_gres_accumulate_device_t, ptr %6, i32 0, i32 6
  %64 = load i8, ptr %63, align 4, !range !8, !noundef !9
  %65 = trunc i8 %64 to i1
  br i1 %65, label %66, label %69

66:                                               ; preds = %62
  %67 = load i32, ptr %5, align 4
  %68 = or i32 %67, 2
  store i32 %68, ptr %5, align 4
  br label %69

69:                                               ; preds = %66, %62, %49
  %70 = load ptr, ptr %8, align 8
  %71 = getelementptr inbounds nuw %struct.slurm_gres_context, ptr %70, i32 0, i32 7
  %72 = getelementptr inbounds nuw %struct.slurm_gres_ops, ptr %71, i32 0, i32 2
  %73 = load ptr, ptr %72, align 8
  %74 = load ptr, ptr %2, align 8
  %75 = getelementptr inbounds nuw %struct.stepd_step_rec_t, ptr %74, i32 0, i32 32
  %76 = load ptr, ptr %4, align 8
  %77 = getelementptr inbounds nuw %struct.foreach_gres_accumulate_device_t, ptr %6, i32 0, i32 1
  %78 = load i64, ptr %77, align 8
  %79 = load i32, ptr %5, align 4
  call void %73(ptr noundef %75, ptr noundef %76, i64 noundef %78, i32 noundef %79)
  %80 = getelementptr inbounds nuw %struct.foreach_gres_accumulate_device_t, ptr %6, i32 0, i32 1
  store i64 0, ptr %80, align 8
  br label %81

81:                                               ; preds = %69
  %82 = load ptr, ptr %4, align 8
  %83 = icmp ne ptr %82, null
  br i1 %83, label %84, label %85

84:                                               ; preds = %81
  call void @slurm_bit_free(ptr noundef %4)
  br label %85

85:                                               ; preds = %84, %81
  store ptr null, ptr %4, align 8
  br label %86

86:                                               ; preds = %85
  br label %87

87:                                               ; preds = %86
  store i32 0, ptr %9, align 4
  br label %88

88:                                               ; preds = %87, %42, %36
  call void @llvm.lifetime.end.p0(i64 8, ptr %8) #11
  %89 = load i32, ptr %9, align 4
  switch i32 %89, label %105 [
    i32 0, label %90
    i32 6, label %91
  ]

90:                                               ; preds = %88
  br label %91

91:                                               ; preds = %90, %88
  %92 = load i32, ptr %3, align 4
  %93 = add nsw i32 %92, 1
  store i32 %93, ptr %3, align 4
  br label %22, !llvm.loop !149

94:                                               ; preds = %22
  br label %95

95:                                               ; preds = %94
  call void @llvm.lifetime.start.p0(i64 4, ptr %10) #11
  %96 = call i32 @pthread_mutex_unlock(ptr noundef @gres_context_lock) #11
  store i32 %96, ptr %10, align 4
  %97 = load i32, ptr %10, align 4
  %98 = icmp ne i32 %97, 0
  br i1 %98, label %99, label %102

99:                                               ; preds = %95
  %100 = load i32, ptr %10, align 4
  %101 = call ptr @__errno_location() #12
  store i32 %100, ptr %101, align 4
  call void (ptr, ...) @fatal_abort(ptr noundef @.str.16, ptr noundef @__func__.gres_g_step_set_env) #13
  unreachable

102:                                              ; preds = %95
  call void @llvm.lifetime.end.p0(i64 4, ptr %10) #11
  br label %103

103:                                              ; preds = %102
  br label %104

104:                                              ; preds = %103
  call void @llvm.lifetime.end.p0(i64 40, ptr %6) #11
  call void @llvm.lifetime.end.p0(i64 4, ptr %5) #11
  call void @llvm.lifetime.end.p0(i64 8, ptr %4) #11
  call void @llvm.lifetime.end.p0(i64 4, ptr %3) #11
  ret void

105:                                              ; preds = %88
  unreachable
}