; Function Attrs: nounwind uwtable
define dso_local void @gres_g_step_set_env(ptr noundef %0) local_unnamed_addr #2 {
  %2 = alloca ptr, align 8
  %3 = alloca %struct.foreach_gres_accumulate_device_t, align 8
  call void @llvm.lifetime.start.p0(i64 8, ptr nonnull %2) #28
  store ptr null, ptr %2, align 8
  call void @llvm.lifetime.start.p0(i64 40, ptr nonnull %3) #28
  %4 = getelementptr inbounds nuw i8, ptr %3, i64 8
  call void @llvm.memset.p0.i64(ptr noundef nonnull align 8 dereferenceable(40) %4, i8 0, i64 32, i1 false)
  store ptr %2, ptr %3, align 8
  %5 = call i32 @pthread_mutex_lock(ptr noundef nonnull @gres_context_lock) #28
  %.not = icmp eq i32 %5, 0
  br i1 %.not, label %.preheader, label %13

.preheader:                                       ; preds = %1
  %6 = load i32, ptr @gres_context_cnt, align 4
  %7 = icmp sgt i32 %6, 0
  br i1 %7, label %.lr.ph, label %._crit_edge

.lr.ph:                                           ; preds = %.preheader
  %8 = getelementptr inbounds nuw i8, ptr %0, i64 768
  %9 = getelementptr inbounds nuw i8, ptr %3, i64 32
  %10 = getelementptr inbounds nuw i8, ptr %3, i64 36
  %11 = getelementptr inbounds nuw i8, ptr %0, i64 280
  %12 = getelementptr inbounds nuw i8, ptr %3, i64 8
  br label %15

13:                                               ; preds = %1
  %14 = tail call ptr @__errno_location() #29
  store i32 %5, ptr %14, align 4
  call void (ptr, ...) @fatal_abort(ptr noundef nonnull @.str.6, ptr noundef nonnull @__func__.gres_g_step_set_env) #30
  unreachable

15:                                               ; preds = %.lr.ph, %39
  %indvars.iv = phi i64 [ 0, %.lr.ph ], [ %indvars.iv.next, %39 ]
  %.01725 = phi i32 [ 0, %.lr.ph ], [ %.1, %39 ]
  %16 = load ptr, ptr @gres_context, align 8
  %17 = getelementptr inbounds nuw %struct.slurm_gres_context, ptr %16, i64 %indvars.iv
  %18 = getelementptr inbounds nuw i8, ptr %17, i64 72
  %19 = load ptr, ptr %18, align 8
  %.not22 = icmp eq ptr %19, null
  br i1 %.not22, label %39, label %20

20:                                               ; preds = %15
  %21 = load ptr, ptr %8, align 8
  %.not23 = icmp eq ptr %21, null
  br i1 %.not23, label %22, label %23

22:                                               ; preds = %20
  call void %19(ptr noundef nonnull %11, ptr noundef null, i64 noundef 0, i32 noundef 0) #28
  br label %39

23:                                               ; preds = %20
  %24 = getelementptr inbounds nuw i8, ptr %17, i64 144
  %25 = load i32, ptr %24, align 8
  store i32 %25, ptr %9, align 8
  %26 = call i32 @list_for_each(ptr noundef nonnull %21, ptr noundef nonnull @_accumulate_gres_device, ptr noundef nonnull %3) #28
  %27 = getelementptr inbounds nuw i8, ptr %17, i64 8
  %28 = load i32, ptr %27, align 8
  %29 = and i32 %28, 512
  %.not.i.not = icmp eq i32 %29, 0
  %30 = load i8, ptr %10, align 4, !range !13
  %31 = trunc nuw i8 %30 to i1
  %32 = or i32 %.01725, 2
  %spec.select = select i1 %31, i32 %32, i32 %.01725
  %.2 = select i1 %.not.i.not, i32 %.01725, i32 %spec.select
  %33 = load ptr, ptr %18, align 8
  %34 = load ptr, ptr %2, align 8
  %35 = load i64, ptr %12, align 8
  call void %33(ptr noundef nonnull %11, ptr noundef %34, i64 noundef %35, i32 noundef %.2) #28
  store i64 0, ptr %12, align 8
  %36 = load ptr, ptr %2, align 8
  %.not24 = icmp eq ptr %36, null
  br i1 %.not24, label %38, label %37

37:                                               ; preds = %23
  call void @slurm_bit_free(ptr noundef nonnull %2) #28
  br label %38

38:                                               ; preds = %37, %23
  store ptr null, ptr %2, align 8
  br label %39

39:                                               ; preds = %15, %38, %22
  %.1 = phi i32 [ %.2, %38 ], [ %.01725, %22 ], [ %.01725, %15 ]
  %indvars.iv.next = add nuw nsw i64 %indvars.iv, 1
  %40 = load i32, ptr @gres_context_cnt, align 4
  %41 = sext i32 %40 to i64
  %42 = icmp slt i64 %indvars.iv.next, %41
  br i1 %42, label %15, label %._crit_edge, !llvm.loop !179

._crit_edge:                                      ; preds = %39, %.preheader
  %43 = call i32 @pthread_mutex_unlock(ptr noundef nonnull @gres_context_lock) #28
  %.not21 = icmp eq i32 %43, 0
  br i1 %.not21, label %46, label %44

44:                                               ; preds = %._crit_edge
  %45 = tail call ptr @__errno_location() #29
  store i32 %43, ptr %45, align 4
  call void (ptr, ...) @fatal_abort(ptr noundef nonnull @.str.16, ptr noundef nonnull @__func__.gres_g_step_set_env) #30
  unreachable

46:                                               ; preds = %._crit_edge
  call void @llvm.lifetime.end.p0(i64 40, ptr nonnull %3) #28
  call void @llvm.lifetime.end.p0(i64 8, ptr nonnull %2) #28
  ret void
}